Certificate:
    Data:
        Version: 1 (0x0)
        Serial Number:
            a9:ba:39:e4:96:f3:c0:0a
    Signature Algorithm: sha1WithRSAEncryption
        Issuer: C = C1, ST = JS1, L = WX1, O = ESP1, OU = ESP1, CN = Server1 CA, emailAddress = ESP1
        Validity
            Not Before: Dec  3 15:35:23 2018 GMT
            Not After : Aug 11 15:35:23 2032 GMT
        Subject: C = C1, ST = JS1, L = WX1, O = ESP1, OU = ESP1, CN = Server1 CA, emailAddress = ESP1
        Subject Public Key Info:
            Public Key Algorithm: rsaEncryption
                Public-Key: (2048 bit)
                Modulus:
                    00:d1:b0:b2:52:1f:78:be:06:51:99:aa:55:06:7d:
                    54:ce:3f:d1:09:5b:ba:06:c8:3c:f0:45:eb:42:05:
                    07:c8:8f:8f:ae:96:c1:e7:59:23:2a:a9:79:0d:00:
                    f3:25:fb:4f:09:94:2c:40:02:4f:5d:a3:65:ed:49:
                    53:35:34:cb:77:85:72:44:f9:02:a6:57:8d:4b:44:
                    b9:48:f2:5a:d7:92:ed:2d:1d:e9:c0:aa:b8:1c:b7:
                    07:45:75:76:1a:b9:dd:90:34:62:ac:7f:a9:8f:ac:
                    61:aa:fb:ce:6b:57:fb:ef:50:f1:a7:f5:35:75:44:
                    68:40:54:09:91:e0:78:99:ca:00:e7:30:9a:d9:e4:
                    81:c4:22:09:24:6e:96:73:20:98:41:90:99:20:cc:
                    9a:bf:1e:14:c1:06:6c:16:c8:68:0b:9f:85:e4:12:
                    d2:bc:45:9a:e0:6b:b3:ad:32:18:b9:6c:78:9e:72:
                    14:1d:af:68:08:99:b3:d7:e4:ae:37:fe:c3:02:8d:
                    17:3f:d3:63:d5:cf:ea:1c:35:f3:80:c0:a1:0e:39:
                    11:05:6b:26:f2:4e:f0:03:e6:5a:e7:91:86:1c:49:
                    99:0e:30:4a:d3:84:fd:a2:c8:bc:5f:c8:4f:45:21:
                    6d:a6:0f:af:3e:d8:f3:3f:ae:fa:91:e1:86:2b:58:
                    08:f7
                Exponent: 65537 (0x10001)
    Signature Algorithm: sha1WithRSAEncryption
         58:25:6b:f8:30:d0:7e:37:10:af:62:fa:28:23:a4:2c:b8:96:
         f2:9a:70:97:27:66:82:d4:f0:d3:4e:e8:f2:94:96:8a:2f:14:
         cf:96:2d:e0:d0:a1:9a:e6:9f:8b:f1:c7:ab:fb:4e:57:5d:9a:
         09:68:95:4d:4f:54:79:08:f6:a7:d3:15:19:b7:65:ec:71:0f:
         95:fa:c3:4e:cc:55:35:59:ef:63:88:50:fd:b1:d7:10:df:7d:
         06:0f:24:3e:83:f2:cd:b8:f1:dd:b5:a7:46:9b:b3:e9:5b:9e:
         06:94:80:cc:40:a7:a9:b6:6f:0c:74:b0:60:b6:05:02:c8:87:
         9b:8f:58:d2:09:f2:73:7a:9f:f3:0e:c5:1b:cb:8f:97:26:6d:
         6d:26:06:bf:82:b9:2b:1f:90:1d:61:bc:b0:dc:8b:7e:c5:dd:
         e3:f4:2c:c8:a5:f6:1b:6f:53:1d:07:3c:23:ad:65:e7:e1:82:
         34:e9:04:46:29:dd:d2:16:3b:19:33:f2:3f:52:56:8a:6b:e1:
         72:06:bd:fd:64:bc:b0:79:a9:ea:3c:f3:b1:d1:5c:57:9c:ac:
         16:8a:5d:96:2c:67:50:9f:ad:f8:75:89:f1:70:60:d8:cd:97:
         58:96:e7:4e:0a:ba:f7:be:75:48:c0:19:0c:a9:77:e7:5f:21:
         47:7d:6f:33
-----BEGIN CERTIFICATE-----
MIIDXjCCAkYCCQCpujnklvPACjANBgkqhkiG9w0BAQUFADBxMQswCQYDVQQGEwJD
MTEMMAoGA1UECAwDSlMxMQwwCgYDVQQHDANXWDExDTALBgNVBAoMBEVTUDExDTAL
BgNVBAsMBEVTUDExEzARBgNVBAMMClNlcnZlcjEgQ0ExEzARBgkqhkiG9w0BCQEW
BEVTUDEwHhcNMTgxMjAzMTUzNTIzWhcNMzIwODExMTUzNTIzWjBxMQswCQYDVQQG
EwJDMTEMMAoGA1UECAwDSlMxMQwwCgYDVQQHDANXWDExDTALBgNVBAoMBEVTUDEx
DTALBgNVBAsMBEVTUDExEzARBgNVBAMMClNlcnZlcjEgQ0ExEzARBgkqhkiG9w0B
CQEWBEVTUDEwggEiMA0GCSqGSIb3DQEBAQUAA4IBDwAwggEKAoIBAQDRsLJSH3i+
BlGZqlUGfVTOP9EJW7oGyDzwRetCBQfIj4+ulsHnWSMqqXkNAPMl+08JlCxAAk9d
o2XtSVM1NMt3hXJE+QKmV41LRLlI8lrXku0tHenAqrgctwdFdXYaud2QNGKsf6mP
rGGq+85rV/vvUPGn9TV1RGhAVAmR4HiZygDnMJrZ5IHEIgkkbpZzIJhBkJkgzJq/
HhTBBmwWyGgLn4XkEtK8RZrga7OtMhi5bHiechQdr2gImbPX5K43/sMCjRc/02PV
z+ocNfOAwKEOOREFaybyTvAD5lrnkYYcSZkOMErThP2iyLxfyE9FIW2mD68+2PM/
rvqR4YYrWAj3AgMBAAEwDQYJKoZIhvcNAQEFBQADggEBAFgla/gw0H43EK9i+igj
pCy4lvKacJcnZoLU8NNO6PKUloovFM+WLeDQoZrmn4vxx6v7TlddmglolU1PVHkI
9qfTFRm3ZexxD5X6w07MVTVZ72OIUP2x1xDffQYPJD6D8s248d21p0abs+lbngaU
gMxAp6m2bwx0sGC2BQLIh5uPWNIJ8nN6n/MOxRvLj5cmbW0mBr+CuSsfkB1hvLDc
i37F3eP0LMil9htvUx0HPCOtZefhgjTpBEYp3dIWOxkz8j9SVopr4XIGvf1kvLB5
qeo887HRXFecrBaKXZYsZ1Cfrfh1ifFwYNjNl1iW504Kuve+dUjAGQypd+dfIUd9
bzM=
-----END CERTIFICATE-----
