Certificate:
    Data:
        Version: 1 (0x0)
        Serial Number:
            82:d6:3c:bc:5d:6b:01:f1
    Signature Algorithm: sha1WithRSAEncryption
        Issuer: C = C1, ST = JS1, L = WX1, O = ESP1, OU = ESP1, CN = Server1 CA, emailAddress = ESP1
        Validity
            Not Before: Dec  3 15:35:23 2018 GMT
            Not After : Aug 11 15:35:23 2032 GMT
        Subject: C = C3, ST = JS333, L = WX333, O = ESP333, OU = ESP333, CN = Server333 CA, emailAddress = ESP333
        Subject Public Key Info:
            Public Key Algorithm: rsaEncryption
                Public-Key: (2048 bit)
                Modulus:
                    00:c9:56:45:ba:10:43:66:85:32:e0:89:cd:ad:6c:
                    c7:d7:3a:b5:59:dc:1b:91:7b:51:bc:e8:8d:3d:cb:
                    9f:7e:e3:2c:66:ad:4d:29:cf:3b:1d:2a:51:c9:96:
                    f4:7a:b9:b5:b5:bd:1e:14:4a:64:83:44:92:ee:3f:
                    d9:f0:48:d7:da:0c:70:82:4f:3e:9c:d9:67:bc:cb:
                    18:fc:f5:61:f7:ef:b0:de:08:0c:2f:82:22:fa:71:
                    23:fa:a2:8f:0b:21:31:23:ef:87:bf:70:7b:61:2e:
                    d6:4c:ad:c0:5a:64:67:b6:a4:e8:41:1b:ba:48:d3:
                    63:94:17:eb:6a:da:4b:b7:6a:b1:22:fa:96:66:b0:
                    54:a9:34:27:ba:c3:73:8a:34:87:a8:3a:b8:18:e4:
                    8a:17:33:7c:a1:31:2e:84:5e:22:e7:a7:69:bb:cd:
                    80:b8:77:4b:c5:3b:d3:fa:17:14:ea:27:37:6f:6a:
                    43:e8:1d:60:71:12:20:44:1e:74:87:88:f1:04:df:
                    b6:93:0b:da:a4:39:32:a6:cc:86:5c:2e:4e:ad:7b:
                    65:d0:93:f4:c5:b2:03:af:7b:41:8f:2d:c4:a3:b2:
                    9a:77:a4:a6:27:aa:b2:eb:92:10:98:33:09:f3:eb:
                    0f:c8:cf:fb:5d:de:0f:6d:f0:0e:ba:2c:26:8a:70:
                    24:7d
                Exponent: 65537 (0x10001)
    Signature Algorithm: sha1WithRSAEncryption
         2a:5b:73:e5:8b:1e:54:34:52:55:22:d9:f2:96:48:39:97:3e:
         96:1f:6e:3f:fc:1f:01:a4:8b:27:46:bb:15:6e:14:5f:8e:33:
         ce:8f:55:e8:21:2c:28:6d:37:89:be:ba:aa:99:cc:6b:32:32:
         5e:34:0b:77:89:f8:09:7c:51:66:c7:96:0a:74:05:3b:90:4d:
         b7:f7:04:25:24:5d:2d:c9:0a:04:a6:5d:9f:c9:c9:92:f0:30:
         9b:f3:fc:38:0b:e3:39:73:65:47:c7:11:b8:48:7a:15:01:b3:
         a4:19:5c:7d:51:4f:9a:de:a9:cf:70:db:00:0b:53:8b:57:7f:
         17:4a:fb:32:08:87:75:0d:88:b0:1c:4c:6a:9b:61:55:80:87:
         ec:18:f5:86:e7:b2:f3:2d:e1:0d:d9:9c:d4:36:cc:c3:48:39:
         51:04:a7:98:8b:00:f9:39:36:12:b6:af:17:44:c1:9e:c7:18:
         f9:63:26:5b:77:63:c3:78:d5:ba:68:b5:74:39:a6:28:96:b8:
         6c:7d:66:a8:7e:84:0d:63:11:94:54:37:ea:3b:4f:e7:9b:2d:
         f5:f7:9e:4f:17:d8:f3:21:62:00:a1:17:31:f9:5b:ea:5e:6b:
         a6:25:b8:56:b0:16:cc:32:ce:b3:a4:1a:6c:7a:ce:cd:37:60:
         94:60:e0:57
-----BEGIN CERTIFICATE-----
MIIDajCCAlICCQCC1jy8XWsB8TANBgkqhkiG9w0BAQUFADBxMQswCQYDVQQGEwJD
MTEMMAoGA1UECAwDSlMxMQwwCgYDVQQHDANXWDExDTALBgNVBAoMBEVTUDExDTAL
BgNVBAsMBEVTUDExEzARBgNVBAMMClNlcnZlcjEgQ0ExEzARBgkqhkiG9w0BCQEW
BEVTUDEwHhcNMTgxMjAzMTUzNTIzWhcNMzIwODExMTUzNTIzWjB9MQswCQYDVQQG
EwJDMzEOMAwGA1UECAwFSlMzMzMxDjAMBgNVBAcMBVdYMzMzMQ8wDQYDVQQKDAZF
U1AzMzMxDzANBgNVBAsMBkVTUDMzMzEVMBMGA1UEAwwMU2VydmVyMzMzIENBMRUw
EwYJKoZIhvcNAQkBFgZFU1AzMzMwggEiMA0GCSqGSIb3DQEBAQUAA4IBDwAwggEK
AoIBAQDJVkW6EENmhTLgic2tbMfXOrVZ3BuRe1G86I09y59+4yxmrU0pzzsdKlHJ
lvR6ubW1vR4USmSDRJLuP9nwSNfaDHCCTz6c2We8yxj89WH377DeCAwvgiL6cSP6
oo8LITEj74e/cHthLtZMrcBaZGe2pOhBG7pI02OUF+tq2ku3arEi+pZmsFSpNCe6
w3OKNIeoOrgY5IoXM3yhMS6EXiLnp2m7zYC4d0vFO9P6FxTqJzdvakPoHWBxEiBE
HnSHiPEE37aTC9qkOTKmzIZcLk6te2XQk/TFsgOve0GPLcSjspp3pKYnqrLrkhCY
Mwnz6w/Iz/td3g9t8A66LCaKcCR9AgMBAAEwDQYJKoZIhvcNAQEFBQADggEBACpb
c+WLHlQ0UlUi2fKWSDmXPpYfbj/8HwGkiydGuxVuFF+OM86PVeghLChtN4m+uqqZ
zGsyMl40C3eJ+Al8UWbHlgp0BTuQTbf3BCUkXS3JCgSmXZ/JyZLwMJvz/DgL4zlz
ZUfHEbhIehUBs6QZXH1RT5reqc9w2wALU4tXfxdK+zIIh3UNiLAcTGqbYVWAh+wY
9YbnsvMt4Q3ZnNQ2zMNIOVEEp5iLAPk5NhK2rxdEwZ7HGPljJlt3Y8N41bpotXQ5
piiWuGx9Zqh+hA1jEZRUN+o7T+ebLfX3nk8X2PMhYgChFzH5W+pea6YluFawFswy
zrOkGmx6zs03YJRg4Fc=
-----END CERTIFICATE-----
