Certificate:
    Data:
        Version: 1 (0x0)
        Serial Number:
            82:d6:3c:bc:5d:6b:01:f0
    Signature Algorithm: sha1WithRSAEncryption
        Issuer: C = C1, ST = JS1, L = WX1, O = ESP1, OU = ESP1, CN = Server1 CA, emailAddress = ESP1
        Validity
            Not Before: Dec  3 15:35:23 2018 GMT
            Not After : Aug 11 15:35:23 2032 GMT
        Subject: C = C2, ST = JS22, L = WX22, O = ESP22, OU = ESP22, CN = Server22 CA, emailAddress = ESP22
        Subject Public Key Info:
            Public Key Algorithm: rsaEncryption
                Public-Key: (2048 bit)
                Modulus:
                    00:a5:9c:e2:73:d9:7a:76:d0:29:80:66:fc:00:b7:
                    ea:b3:df:3a:67:05:23:56:2c:ca:a8:bf:13:d5:a9:
                    11:73:0b:45:df:d9:e8:a7:92:53:00:93:1a:23:0e:
                    3e:1c:b0:53:43:9a:53:ed:04:34:1c:c6:a6:37:bd:
                    ba:b8:42:aa:c5:ff:1a:03:7d:4c:97:80:32:12:02:
                    bb:18:d9:af:65:c9:74:e8:c2:bd:e5:40:7c:70:5e:
                    14:f7:b4:30:b1:24:02:33:40:cb:98:0e:c8:a9:d5:
                    92:9f:72:49:10:a3:6a:59:e9:74:11:11:cd:42:6c:
                    46:fb:6d:2b:22:21:58:d6:f1:a8:23:6b:2e:91:a6:
                    08:f1:da:3a:dc:18:29:37:b5:35:46:93:e7:90:4e:
                    51:98:21:89:2d:af:79:10:74:2e:6c:5d:74:31:08:
                    8b:50:cd:91:58:87:06:d2:b3:c3:0c:59:2a:25:dd:
                    94:67:d5:3a:c0:cb:3c:ec:ac:6a:63:64:0d:3f:87:
                    82:ca:49:f2:59:ae:a6:d7:b7:3b:f0:ee:f7:62:67:
                    df:a3:ec:36:93:87:a2:f6:75:ef:88:2a:49:a2:8e:
                    09:61:09:96:fd:92:7b:c2:c9:18:98:b2:3c:c2:6b:
                    4b:bf:5c:e7:44:dc:aa:71:07:11:75:25:ae:61:47:
                    57:7f
                Exponent: 65537 (0x10001)
    Signature Algorithm: sha1WithRSAEncryption
         80:1e:90:d9:d3:df:92:56:1b:be:0b:0d:44:62:e3:a2:da:d8:
         28:4a:18:f1:a6:c3:6b:59:41:41:39:43:9c:96:b1:cb:a4:1b:
         3d:e5:36:74:83:1a:f8:8d:33:20:e7:98:85:5a:01:6f:71:6d:
         ca:59:75:4b:58:cd:2d:f1:be:2b:c9:7f:e8:0e:d7:c9:11:6a:
         df:7d:fb:90:1c:61:b8:34:c3:d3:58:33:e1:97:7e:a8:92:7e:
         fe:e1:45:40:d1:6a:bd:f5:f6:1f:31:bf:00:75:ce:fd:f7:1a:
         b2:0b:fe:12:f7:14:7c:94:2d:6f:a6:3c:27:d1:70:ac:6b:d5:
         77:e1:a4:1f:3a:67:54:86:9f:e5:77:91:0a:a8:1f:d1:e0:91:
         81:61:a1:4f:cd:6a:91:ae:3d:e7:d9:fb:86:15:a2:87:10:97:
         c1:9a:5d:6a:29:df:cf:fb:25:ad:5d:e1:c2:f3:0a:28:7e:ec:
         9c:45:84:07:38:3c:e7:f4:74:8f:66:79:61:e4:5c:b9:67:1a:
         5d:54:5d:01:a6:cc:59:02:ab:09:57:06:e1:f4:ea:3e:2b:63:
         c4:ac:7b:86:4d:31:8a:06:2f:1c:fc:e1:35:ed:e0:d8:63:ce:
         5d:fb:0c:85:9e:59:46:95:ca:4b:e8:41:e5:fd:78:59:41:be:
         a2:3e:82:c5
-----BEGIN CERTIFICATE-----
MIIDZDCCAkwCCQCC1jy8XWsB8DANBgkqhkiG9w0BAQUFADBxMQswCQYDVQQGEwJD
MTEMMAoGA1UECAwDSlMxMQwwCgYDVQQHDANXWDExDTALBgNVBAoMBEVTUDExDTAL
BgNVBAsMBEVTUDExEzARBgNVBAMMClNlcnZlcjEgQ0ExEzARBgkqhkiG9w0BCQEW
BEVTUDEwHhcNMTgxMjAzMTUzNTIzWhcNMzIwODExMTUzNTIzWjB3MQswCQYDVQQG
EwJDMjENMAsGA1UECAwESlMyMjENMAsGA1UEBwwEV1gyMjEOMAwGA1UECgwFRVNQ
MjIxDjAMBgNVBAsMBUVTUDIyMRQwEgYDVQQDDAtTZXJ2ZXIyMiBDQTEUMBIGCSqG
SIb3DQEJARYFRVNQMjIwggEiMA0GCSqGSIb3DQEBAQUAA4IBDwAwggEKAoIBAQCl
nOJz2Xp20CmAZvwAt+qz3zpnBSNWLMqovxPVqRFzC0Xf2einklMAkxojDj4csFND
mlPtBDQcxqY3vbq4QqrF/xoDfUyXgDISArsY2a9lyXTowr3lQHxwXhT3tDCxJAIz
QMuYDsip1ZKfckkQo2pZ6XQREc1CbEb7bSsiIVjW8agjay6Rpgjx2jrcGCk3tTVG
k+eQTlGYIYktr3kQdC5sXXQxCItQzZFYhwbSs8MMWSol3ZRn1TrAyzzsrGpjZA0/
h4LKSfJZrqbXtzvw7vdiZ9+j7DaTh6L2de+IKkmijglhCZb9knvCyRiYsjzCa0u/
XOdE3KpxBxF1Ja5hR1d/AgMBAAEwDQYJKoZIhvcNAQEFBQADggEBAIAekNnT35JW
G74LDURi46La2ChKGPGmw2tZQUE5Q5yWscukGz3lNnSDGviNMyDnmIVaAW9xbcpZ
dUtYzS3xvivJf+gO18kRat99+5AcYbg0w9NYM+GXfqiSfv7hRUDRar319h8xvwB1
zv33GrIL/hL3FHyULW+mPCfRcKxr1XfhpB86Z1SGn+V3kQqoH9HgkYFhoU/NapGu
PefZ+4YVoocQl8GaXWop38/7Ja1d4cLzCih+7JxFhAc4POf0dI9meWHkXLlnGl1U
XQGmzFkCqwlXBuH06j4rY8Sse4ZNMYoGLxz84TXt4Nhjzl37DIWeWUaVykvoQeX9
eFlBvqI+gsU=
-----END CERTIFICATE-----
